target datalayout = "e-m:e-p270:32:32-p271:32:32-p272:64:64-i64:64-i128:128-f80:128-n8:16:32:64-S128"
target triple = "x86_64-pc-linux-gnu"

%struct.URLContext = type { ptr, ptr, ptr, ptr, i32, i32, i32, i32, %struct.AVIOInterruptCB, i64, ptr, ptr, i32 }
%struct.AVIOInterruptCB = type { ptr, ptr }
%struct.UnixContext = type { ptr, %struct.sockaddr_un, i32, i32, i32, i32 }
%struct.sockaddr_un = type { i16, [108 x i8] }

@.str.1 = private unnamed_addr constant [6 x i8] c"unix:\00", align 1

; Function Attrs: nounwind uwtable
define internal i32 @unix_open(ptr noundef %0, ptr noundef %1, i32 noundef %2) #0 {
  %4 = alloca i32, align 4
  %5 = alloca ptr, align 8
  %6 = alloca ptr, align 8
  %7 = alloca i32, align 4
  %8 = alloca ptr, align 8
  %9 = alloca i32, align 4
  %10 = alloca i32, align 4
  %11 = alloca i32, align 4
  store ptr %0, ptr %5, align 8, !tbaa !4
  store ptr %1, ptr %6, align 8, !tbaa !9
  store i32 %2, ptr %7, align 4, !tbaa !11
  call void @llvm.lifetime.start.p0(i64 8, ptr %8) #5
  %12 = load ptr, ptr %5, align 8, !tbaa !4
  %13 = getelementptr inbounds nuw %struct.URLContext, ptr %12, i32 0, i32 2
  %14 = load ptr, ptr %13, align 8, !tbaa !13
  store ptr %14, ptr %8, align 8, !tbaa !19
  call void @llvm.lifetime.start.p0(i64 4, ptr %9) #5
  call void @llvm.lifetime.start.p0(i64 4, ptr %10) #5
  %15 = load ptr, ptr %6, align 8, !tbaa !9
  %16 = call i32 @av_strstart(ptr noundef %15, ptr noundef @.str.1, ptr noundef %6)
  %17 = load ptr, ptr %8, align 8, !tbaa !19
  %18 = getelementptr inbounds nuw %struct.UnixContext, ptr %17, i32 0, i32 1
  %19 = getelementptr inbounds nuw %struct.sockaddr_un, ptr %18, i32 0, i32 0
  store i16 1, ptr %19, align 8, !tbaa !21
  %20 = load ptr, ptr %8, align 8, !tbaa !19
  %21 = getelementptr inbounds nuw %struct.UnixContext, ptr %20, i32 0, i32 1
  %22 = getelementptr inbounds nuw %struct.sockaddr_un, ptr %21, i32 0, i32 1
  %23 = getelementptr inbounds [108 x i8], ptr %22, i64 0, i64 0
  %24 = load ptr, ptr %6, align 8, !tbaa !9
  %25 = call i64 @av_strlcpy(ptr noundef %23, ptr noundef %24, i64 noundef 108)
  %26 = load ptr, ptr %8, align 8, !tbaa !19
  %27 = getelementptr inbounds nuw %struct.UnixContext, ptr %26, i32 0, i32 4
  %28 = load i32, ptr %27, align 8, !tbaa !25
  %29 = load ptr, ptr %5, align 8, !tbaa !4
  %30 = call i32 @ff_socket(i32 noundef 1, i32 noundef %28, i32 noundef 0, ptr noundef %29)
  store i32 %30, ptr %9, align 4, !tbaa !11
  %31 = icmp slt i32 %30, 0
  br i1 %31, label %32, label %36

32:                                               ; preds = %3
  %33 = call ptr @__errno_location() #6
  %34 = load i32, ptr %33, align 4, !tbaa !11
  %35 = sub nsw i32 0, %34
  store i32 %35, ptr %4, align 4
  store i32 1, ptr %11, align 4
  br label %115

36:                                               ; preds = %3
  %37 = load ptr, ptr %8, align 8, !tbaa !19
  %38 = getelementptr inbounds nuw %struct.UnixContext, ptr %37, i32 0, i32 2
  %39 = load i32, ptr %38, align 8, !tbaa !26
  %40 = icmp slt i32 %39, 0
  br i1 %40, label %41, label %54

41:                                               ; preds = %36
  %42 = load ptr, ptr %5, align 8, !tbaa !4
  %43 = getelementptr inbounds nuw %struct.URLContext, ptr %42, i32 0, i32 9
  %44 = load i64, ptr %43, align 8, !tbaa !27
  %45 = icmp ne i64 %44, 0
  br i1 %45, label %46, label %54

46:                                               ; preds = %41
  %47 = load ptr, ptr %5, align 8, !tbaa !4
  %48 = getelementptr inbounds nuw %struct.URLContext, ptr %47, i32 0, i32 9
  %49 = load i64, ptr %48, align 8, !tbaa !27
  %50 = sdiv i64 %49, 1000
  %51 = trunc i64 %50 to i32
  %52 = load ptr, ptr %8, align 8, !tbaa !19
  %53 = getelementptr inbounds nuw %struct.UnixContext, ptr %52, i32 0, i32 2
  store i32 %51, ptr %53, align 8, !tbaa !26
  br label %54

54:                                               ; preds = %46, %41, %36
  %55 = load ptr, ptr %8, align 8, !tbaa !19
  %56 = getelementptr inbounds nuw %struct.UnixContext, ptr %55, i32 0, i32 3
  %57 = load i32, ptr %56, align 4, !tbaa !28
  %58 = icmp ne i32 %57, 0
  br i1 %58, label %59, label %73

59:                                               ; preds = %54
  %60 = load i32, ptr %9, align 4, !tbaa !11
  %61 = load ptr, ptr %8, align 8, !tbaa !19
  %62 = getelementptr inbounds nuw %struct.UnixContext, ptr %61, i32 0, i32 1
  %63 = load ptr, ptr %8, align 8, !tbaa !19
  %64 = getelementptr inbounds nuw %struct.UnixContext, ptr %63, i32 0, i32 2
  %65 = load i32, ptr %64, align 8, !tbaa !26
  %66 = load ptr, ptr %5, align 8, !tbaa !4
  %67 = call i32 @ff_listen_bind(i32 noundef %60, ptr noundef %62, i32 noundef 110, i32 noundef %65, ptr noundef %66)
  store i32 %67, ptr %10, align 4, !tbaa !11
  %68 = load i32, ptr %10, align 4, !tbaa !11
  %69 = icmp slt i32 %68, 0
  br i1 %69, label %70, label %71

70:                                               ; preds = %59
  br label %92

71:                                               ; preds = %59
  %72 = load i32, ptr %10, align 4, !tbaa !11
  store i32 %72, ptr %9, align 4, !tbaa !11
  br label %86

73:                                               ; preds = %54
  %74 = load i32, ptr %9, align 4, !tbaa !11
  %75 = load ptr, ptr %8, align 8, !tbaa !19
  %76 = getelementptr inbounds nuw %struct.UnixContext, ptr %75, i32 0, i32 1
  %77 = load ptr, ptr %8, align 8, !tbaa !19
  %78 = getelementptr inbounds nuw %struct.UnixContext, ptr %77, i32 0, i32 2
  %79 = load i32, ptr %78, align 8, !tbaa !26
  %80 = load ptr, ptr %5, align 8, !tbaa !4
  %81 = call i32 @ff_listen_connect(i32 noundef %74, ptr noundef %76, i32 noundef 110, i32 noundef %79, ptr noundef %80, i32 noundef 0)
  store i32 %81, ptr %10, align 4, !tbaa !11
  %82 = load i32, ptr %10, align 4, !tbaa !11
  %83 = icmp slt i32 %82, 0
  br i1 %83, label %84, label %85

84:                                               ; preds = %73
  br label %92

85:                                               ; preds = %73
  br label %86

86:                                               ; preds = %85, %71
  %87 = load i32, ptr %9, align 4, !tbaa !11
  %88 = load ptr, ptr %8, align 8, !tbaa !19
  %89 = getelementptr inbounds nuw %struct.UnixContext, ptr %88, i32 0, i32 5
  store i32 %87, ptr %89, align 4, !tbaa !29
  %90 = load ptr, ptr %5, align 8, !tbaa !4
  %91 = getelementptr inbounds nuw %struct.URLContext, ptr %90, i32 0, i32 6
  store i32 1, ptr %91, align 8, !tbaa !30
  store i32 0, ptr %4, align 4
  store i32 1, ptr %11, align 4
  br label %115

92:                                               ; preds = %84, %70
  %93 = load ptr, ptr %8, align 8, !tbaa !19
  %94 = getelementptr inbounds nuw %struct.UnixContext, ptr %93, i32 0, i32 3
  %95 = load i32, ptr %94, align 4, !tbaa !28
  %96 = icmp ne i32 %95, 0
  br i1 %96, label %97, label %107

97:                                               ; preds = %92
  %98 = load i32, ptr %10, align 4, !tbaa !11
  %99 = sub nsw i32 0, %98
  %100 = icmp ne i32 %99, 98
  br i1 %100, label %101, label %107

101:                                              ; preds = %97
  %102 = load ptr, ptr %8, align 8, !tbaa !19
  %103 = getelementptr inbounds nuw %struct.UnixContext, ptr %102, i32 0, i32 1
  %104 = getelementptr inbounds nuw %struct.sockaddr_un, ptr %103, i32 0, i32 1
  %105 = getelementptr inbounds [108 x i8], ptr %104, i64 0, i64 0
  %106 = call i32 @unlink(ptr noundef %105) #5
  br label %107

107:                                              ; preds = %101, %97, %92
  %108 = load i32, ptr %9, align 4, !tbaa !11
  %109 = icmp sge i32 %108, 0
  br i1 %109, label %110, label %113

110:                                              ; preds = %107
  %111 = load i32, ptr %9, align 4, !tbaa !11
  %112 = call i32 @close(i32 noundef %111)
  br label %113

113:                                              ; preds = %110, %107
  %114 = load i32, ptr %10, align 4, !tbaa !11
  store i32 %114, ptr %4, align 4
  store i32 1, ptr %11, align 4
  br label %115

115:                                              ; preds = %113, %86, %32
  call void @llvm.lifetime.end.p0(i64 4, ptr %10) #5
  call void @llvm.lifetime.end.p0(i64 4, ptr %9) #5
  call void @llvm.lifetime.end.p0(i64 8, ptr %8) #5
  %116 = load i32, ptr %4, align 4
  ret i32 %116
}