; Function Attrs: nounwind uwtable
define internal i32 @unix_open(ptr noundef %0, ptr noundef %1, i32 %2) #0 {
  %4 = alloca ptr, align 8
  store ptr %1, ptr %4, align 8, !tbaa !4
  %5 = getelementptr inbounds nuw i8, ptr %0, i64 16
  %6 = load ptr, ptr %5, align 8, !tbaa !9
  %7 = call i32 @av_strstart(ptr noundef %1, ptr noundef nonnull @.str.1, ptr noundef nonnull %4) #5
  %8 = getelementptr inbounds nuw i8, ptr %6, i64 8
  store i16 1, ptr %8, align 8, !tbaa !16
  %9 = getelementptr inbounds nuw i8, ptr %6, i64 10
  %10 = load ptr, ptr %4, align 8, !tbaa !4
  %11 = call i64 @av_strlcpy(ptr noundef nonnull %9, ptr noundef %10, i64 noundef 108) #5
  %12 = getelementptr inbounds nuw i8, ptr %6, i64 128
  %13 = load i32, ptr %12, align 8, !tbaa !20
  %14 = call i32 @ff_socket(i32 noundef 1, i32 noundef %13, i32 noundef 0, ptr noundef %0) #5
  %15 = icmp slt i32 %14, 0
  br i1 %15, label %16, label %20

16:                                               ; preds = %3
  %17 = tail call ptr @__errno_location() #6
  %18 = load i32, ptr %17, align 4, !tbaa !21
  %19 = sub nsw i32 0, %18
  br label %49

20:                                               ; preds = %3
  %21 = getelementptr inbounds nuw i8, ptr %6, i64 120
  %22 = load i32, ptr %21, align 8, !tbaa !22
  %23 = icmp slt i32 %22, 0
  br i1 %23, label %24, label %30

24:                                               ; preds = %20
  %25 = getelementptr inbounds nuw i8, ptr %0, i64 64
  %26 = load i64, ptr %25, align 8, !tbaa !23
  %.not = icmp eq i64 %26, 0
  br i1 %.not, label %30, label %27

27:                                               ; preds = %24
  %28 = sdiv i64 %26, 1000
  %29 = trunc i64 %28 to i32
  store i32 %29, ptr %21, align 8, !tbaa !22
  br label %30

30:                                               ; preds = %27, %24, %20
  %31 = phi i32 [ %29, %27 ], [ %22, %24 ], [ %22, %20 ]
  %32 = getelementptr inbounds nuw i8, ptr %6, i64 124
  %33 = load i32, ptr %32, align 4, !tbaa !24
  %.not36 = icmp eq i32 %33, 0
  br i1 %.not36, label %37, label %34

34:                                               ; preds = %30
  %35 = call i32 @ff_listen_bind(i32 noundef %14, ptr noundef nonnull %8, i32 noundef 110, i32 noundef %31, ptr noundef nonnull %0) #5
  %36 = icmp slt i32 %35, 0
  br i1 %36, label %43, label %40

37:                                               ; preds = %30
  %38 = call i32 @ff_listen_connect(i32 noundef %14, ptr noundef nonnull %8, i32 noundef 110, i32 noundef %31, ptr noundef nonnull %0, i32 noundef 0) #5
  %39 = icmp slt i32 %38, 0
  br i1 %39, label %43, label %40

40:                                               ; preds = %34, %37
  %.030 = phi i32 [ %14, %37 ], [ %35, %34 ]
  %41 = getelementptr inbounds nuw i8, ptr %6, i64 132
  store i32 %.030, ptr %41, align 4, !tbaa !25
  %42 = getelementptr inbounds nuw i8, ptr %0, i64 40
  store i32 1, ptr %42, align 8, !tbaa !26
  br label %49

43:                                               ; preds = %37, %34
  %.0 = phi i32 [ %35, %34 ], [ %38, %37 ]
  %44 = load i32, ptr %32, align 4, !tbaa !24
  %.not37 = icmp eq i32 %44, 0
  %.not38 = icmp eq i32 %.0, -98
  %or.cond = or i1 %.not38, %.not37
  br i1 %or.cond, label %47, label %45

45:                                               ; preds = %43
  %46 = call i32 @unlink(ptr noundef nonnull %9) #5
  br label %47

47:                                               ; preds = %43, %45
  %48 = call i32 @close(i32 noundef %14) #5
  br label %49

49:                                               ; preds = %47, %40, %16
  %.031 = phi i32 [ %19, %16 ], [ %.0, %47 ], [ 0, %40 ]
  ret i32 %.031
}